target datalayout = "e-m:e-p270:32:32-p271:32:32-p272:64:64-i64:64-i128:128-f80:128-n8:16:32:64-S128"
target triple = "x86_64-pc-linux-gnu"

%struct.ZSTD_customMem = type { ptr, ptr, ptr }
%struct.ZSTD_DCtx_s = type { ptr, ptr, ptr, ptr, %struct.ZSTD_entropyDTables_t, [640 x i32], ptr, ptr, ptr, ptr, i64, %struct.ZSTD_FrameHeader, i64, i64, i32, i32, i32, i32, %struct.XXH64_state_s, i64, i32, i32, i32, ptr, %struct.ZSTD_customMem, i64, i64, i64, i32, i32, ptr, ptr, i32, i32, i32, ptr, i32, i32, i32, i32, ptr, i64, i64, i64, ptr, i64, i64, i64, i64, ptr, i32, i32, i32, i32, i32, %struct.ZSTD_outBuffer_s, ptr, ptr, i32, [65568 x i8], [18 x i8], i64, i64 }
%struct.ZSTD_entropyDTables_t = type { [513 x %struct.ZSTD_seqSymbol], [257 x %struct.ZSTD_seqSymbol], [513 x %struct.ZSTD_seqSymbol], [4097 x i32], [3 x i32], [157 x i32] }
%struct.ZSTD_seqSymbol = type { i16, i8, i8, i32 }
%struct.ZSTD_FrameHeader = type { i64, i64, i32, i32, i32, i32, i32, i32, i32 }
%struct.XXH64_state_s = type { i64, [4 x i64], [4 x i64], i32, i32, i64 }
%struct.ZSTD_outBuffer_s = type { ptr, i64, i64 }
%struct.ZSTD_Trace = type { i32, i32, i32, i32, i64, i64, i64, ptr, ptr, ptr }

; Function Attrs: nounwind uwtable
define internal void @ZSTD_DCtx_trace_end(ptr noundef %0, i64 noundef %1, i64 noundef %2, i32 noundef %3) #0 {
  %5 = alloca ptr, align 8
  %6 = alloca i64, align 8
  %7 = alloca i64, align 8
  %8 = alloca i32, align 4
  %9 = alloca %struct.ZSTD_Trace, align 8
  store ptr %0, ptr %5, align 8, !tbaa !3
  store i64 %1, ptr %6, align 8, !tbaa !24
  store i64 %2, ptr %7, align 8, !tbaa !24
  store i32 %3, ptr %8, align 4, !tbaa !43
  %10 = load ptr, ptr %5, align 8, !tbaa !3
  %11 = getelementptr inbounds nuw %struct.ZSTD_DCtx_s, ptr %10, i32 0, i32 62
  %12 = load i64, ptr %11, align 8, !tbaa !96
  %13 = icmp ne i64 %12, 0
  br i1 %13, label %14, label %49

14:                                               ; preds = %4
  %15 = icmp ne ptr @ZSTD_trace_decompress_end, null
  br i1 %15, label %16, label %49

16:                                               ; preds = %14
  call void @llvm.lifetime.start.p0(i64 64, ptr %9) #11
  call void @llvm.memset.p0.i64(ptr align 8 %9, i8 0, i64 64, i1 false)
  %17 = getelementptr inbounds nuw %struct.ZSTD_Trace, ptr %9, i32 0, i32 0
  store i32 10507, ptr %17, align 8, !tbaa !97
  %18 = load i32, ptr %8, align 4, !tbaa !43
  %19 = getelementptr inbounds nuw %struct.ZSTD_Trace, ptr %9, i32 0, i32 1
  store i32 %18, ptr %19, align 4, !tbaa !101
  %20 = load ptr, ptr %5, align 8, !tbaa !3
  %21 = getelementptr inbounds nuw %struct.ZSTD_DCtx_s, ptr %20, i32 0, i32 31
  %22 = load ptr, ptr %21, align 8, !tbaa !27
  %23 = icmp ne ptr %22, null
  br i1 %23, label %24, label %39

24:                                               ; preds = %16
  %25 = load ptr, ptr %5, align 8, !tbaa !3
  %26 = getelementptr inbounds nuw %struct.ZSTD_DCtx_s, ptr %25, i32 0, i32 31
  %27 = load ptr, ptr %26, align 8, !tbaa !27
  %28 = call i32 @ZSTD_getDictID_fromDDict(ptr noundef %27)
  %29 = getelementptr inbounds nuw %struct.ZSTD_Trace, ptr %9, i32 0, i32 2
  store i32 %28, ptr %29, align 8, !tbaa !102
  %30 = load ptr, ptr %5, align 8, !tbaa !3
  %31 = getelementptr inbounds nuw %struct.ZSTD_DCtx_s, ptr %30, i32 0, i32 31
  %32 = load ptr, ptr %31, align 8, !tbaa !27
  %33 = call i64 @ZSTD_DDict_dictSize(ptr noundef %32)
  %34 = getelementptr inbounds nuw %struct.ZSTD_Trace, ptr %9, i32 0, i32 4
  store i64 %33, ptr %34, align 8, !tbaa !103
  %35 = load ptr, ptr %5, align 8, !tbaa !3
  %36 = getelementptr inbounds nuw %struct.ZSTD_DCtx_s, ptr %35, i32 0, i32 33
  %37 = load i32, ptr %36, align 4, !tbaa !29
  %38 = getelementptr inbounds nuw %struct.ZSTD_Trace, ptr %9, i32 0, i32 3
  store i32 %37, ptr %38, align 4, !tbaa !104
  br label %39

39:                                               ; preds = %24, %16
  %40 = load i64, ptr %6, align 8, !tbaa !24
  %41 = getelementptr inbounds nuw %struct.ZSTD_Trace, ptr %9, i32 0, i32 5
  store i64 %40, ptr %41, align 8, !tbaa !105
  %42 = load i64, ptr %7, align 8, !tbaa !24
  %43 = getelementptr inbounds nuw %struct.ZSTD_Trace, ptr %9, i32 0, i32 6
  store i64 %42, ptr %43, align 8, !tbaa !106
  %44 = load ptr, ptr %5, align 8, !tbaa !3
  %45 = getelementptr inbounds nuw %struct.ZSTD_Trace, ptr %9, i32 0, i32 9
  store ptr %44, ptr %45, align 8, !tbaa !107
  %46 = load ptr, ptr %5, align 8, !tbaa !3
  %47 = getelementptr inbounds nuw %struct.ZSTD_DCtx_s, ptr %46, i32 0, i32 62
  %48 = load i64, ptr %47, align 8, !tbaa !96
  call void @ZSTD_trace_decompress_end(i64 noundef %48, ptr noundef %9)
  call void @llvm.lifetime.end.p0(i64 64, ptr %9) #11
  br label %49

49:                                               ; preds = %39, %14, %4
  ret void
}